target datalayout = "e-m:e-p270:32:32-p271:32:32-p272:64:64-i64:64-i128:128-f80:128-n8:16:32:64-S128"
target triple = "x86_64-pc-linux-gnu"

%struct.expert_field = type { i32, i32 }

@ei_reload_truncated_field = internal global %struct.expert_field zeroinitializer, align 4
@hf_reload_length_uint32 = internal global i32 0, align 4
@.str.17 = private unnamed_addr constant [14 x i8] c": %d elements\00", align 1
@hf_reload_storereq = internal global i32 0, align 4
@hf_reload_resource = internal global i32 0, align 4
@hf_reload_store_replica_num = internal global i32 0, align 4
@hf_reload_store_kind_data = internal global i32 0, align 4
@ett_reload_storereq = internal global i32 0, align 4
@ett_reload_store_kind_data = internal global i32 0, align 4
@.str.670 = private unnamed_addr constant [38 x i8] c"Truncated StoreReq: resource too long\00", align 1
@.str.671 = private unnamed_addr constant [47 x i8] c"Truncated StoreReq: no room for replica_number\00", align 1
@.str.672 = private unnamed_addr constant [39 x i8] c"Truncated StoreReq: kind_data too long\00", align 1
@.str.673 = private unnamed_addr constant [21 x i8] c" (StoreKindData<%d>)\00", align 1

; Function Attrs: null_pointer_is_valid sspstrong uwtable
define internal i32 @dissect_storereq(ptr noundef %0, ptr noundef %1, ptr noundef %2, i16 noundef zeroext %3, i16 noundef zeroext %4) #0 {
  %6 = alloca i32, align 4
  %7 = alloca ptr, align 8
  %8 = alloca ptr, align 8
  %9 = alloca ptr, align 8
  %10 = alloca i16, align 2
  %11 = alloca i16, align 2
  %12 = alloca ptr, align 8
  %13 = alloca ptr, align 8
  %14 = alloca i32, align 4
  %15 = alloca i32, align 4
  %16 = alloca i32, align 4
  %17 = alloca i32, align 4
  %18 = alloca i32, align 4
  %19 = alloca ptr, align 8
  %20 = alloca ptr, align 8
  %21 = alloca i32, align 4
  store ptr %0, ptr %7, align 8
  store ptr %1, ptr %8, align 8
  store ptr %2, ptr %9, align 8
  store i16 %3, ptr %10, align 2
  store i16 %4, ptr %11, align 2
  call void @llvm.lifetime.start.p0(i64 8, ptr %12) #8
  call void @llvm.lifetime.start.p0(i64 8, ptr %13) #8
  call void @llvm.lifetime.start.p0(i64 4, ptr %14) #8
  store i32 0, ptr %14, align 4
  call void @llvm.lifetime.start.p0(i64 4, ptr %15) #8
  %22 = load ptr, ptr %7, align 8
  %23 = load i16, ptr %10, align 2
  %24 = zext i16 %23 to i32
  %25 = call zeroext i8 @tvb_get_uint8(ptr noundef %22, i32 noundef %24)
  %26 = zext i8 %25 to i32
  %27 = add i32 %26, 1
  %28 = load i32, ptr %14, align 4
  %29 = add i32 %28, %27
  store i32 %29, ptr %14, align 4
  %30 = load i32, ptr %14, align 4
  %31 = load i16, ptr %11, align 2
  %32 = zext i16 %31 to i32
  %33 = icmp ugt i32 %30, %32
  br i1 %33, label %34, label %48

34:                                               ; preds = %5
  %35 = load ptr, ptr %9, align 8
  %36 = load i32, ptr @hf_reload_storereq, align 4
  %37 = load ptr, ptr %7, align 8
  %38 = load i16, ptr %10, align 2
  %39 = zext i16 %38 to i32
  %40 = load i16, ptr %11, align 2
  %41 = zext i16 %40 to i32
  %42 = call ptr @proto_tree_add_item(ptr noundef %35, i32 noundef %36, ptr noundef %37, i32 noundef %39, i32 noundef %41, i32 noundef 0)
  store ptr %42, ptr %12, align 8
  %43 = load ptr, ptr %8, align 8
  %44 = load ptr, ptr %12, align 8
  %45 = call ptr (ptr, ptr, ptr, ptr, ...) @expert_add_info_format(ptr noundef %43, ptr noundef %44, ptr noundef @ei_reload_truncated_field, ptr noundef @.str.670)
  %46 = load i16, ptr %11, align 2
  %47 = zext i16 %46 to i32
  store i32 %47, ptr %6, align 4
  store i32 1, ptr %16, align 4
  br label %201

48:                                               ; preds = %5
  %49 = load i32, ptr %14, align 4
  %50 = add i32 %49, 1
  store i32 %50, ptr %14, align 4
  %51 = load i32, ptr %14, align 4
  %52 = load i16, ptr %11, align 2
  %53 = zext i16 %52 to i32
  %54 = icmp ugt i32 %51, %53
  br i1 %54, label %55, label %69

55:                                               ; preds = %48
  %56 = load ptr, ptr %9, align 8
  %57 = load i32, ptr @hf_reload_storereq, align 4
  %58 = load ptr, ptr %7, align 8
  %59 = load i16, ptr %10, align 2
  %60 = zext i16 %59 to i32
  %61 = load i16, ptr %11, align 2
  %62 = zext i16 %61 to i32
  %63 = call ptr @proto_tree_add_item(ptr noundef %56, i32 noundef %57, ptr noundef %58, i32 noundef %60, i32 noundef %62, i32 noundef 0)
  store ptr %63, ptr %12, align 8
  %64 = load ptr, ptr %8, align 8
  %65 = load ptr, ptr %12, align 8
  %66 = call ptr (ptr, ptr, ptr, ptr, ...) @expert_add_info_format(ptr noundef %64, ptr noundef %65, ptr noundef @ei_reload_truncated_field, ptr noundef @.str.671)
  %67 = load i16, ptr %11, align 2
  %68 = zext i16 %67 to i32
  store i32 %68, ptr %6, align 4
  store i32 1, ptr %16, align 4
  br label %201

69:                                               ; preds = %48
  %70 = load ptr, ptr %7, align 8
  %71 = load i16, ptr %10, align 2
  %72 = zext i16 %71 to i32
  %73 = load i32, ptr %14, align 4
  %74 = add i32 %72, %73
  %75 = call i32 @tvb_get_ntohl(ptr noundef %70, i32 noundef %74)
  store i32 %75, ptr %15, align 4
  %76 = load i32, ptr %14, align 4
  %77 = add i32 %76, 4
  store i32 %77, ptr %14, align 4
  %78 = load i32, ptr %14, align 4
  %79 = load i32, ptr %15, align 4
  %80 = add i32 %78, %79
  %81 = load i16, ptr %11, align 2
  %82 = zext i16 %81 to i32
  %83 = icmp ugt i32 %80, %82
  br i1 %83, label %84, label %98

84:                                               ; preds = %69
  %85 = load ptr, ptr %9, align 8
  %86 = load i32, ptr @hf_reload_storereq, align 4
  %87 = load ptr, ptr %7, align 8
  %88 = load i16, ptr %10, align 2
  %89 = zext i16 %88 to i32
  %90 = load i16, ptr %11, align 2
  %91 = zext i16 %90 to i32
  %92 = call ptr @proto_tree_add_item(ptr noundef %85, i32 noundef %86, ptr noundef %87, i32 noundef %89, i32 noundef %91, i32 noundef 0)
  store ptr %92, ptr %12, align 8
  %93 = load ptr, ptr %8, align 8
  %94 = load ptr, ptr %12, align 8
  %95 = call ptr (ptr, ptr, ptr, ptr, ...) @expert_add_info_format(ptr noundef %93, ptr noundef %94, ptr noundef @ei_reload_truncated_field, ptr noundef @.str.672)
  %96 = load i16, ptr %11, align 2
  %97 = zext i16 %96 to i32
  store i32 %97, ptr %6, align 4
  store i32 1, ptr %16, align 4
  br label %201

98:                                               ; preds = %69
  %99 = load i32, ptr %15, align 4
  %100 = load i32, ptr %14, align 4
  %101 = add i32 %100, %99
  store i32 %101, ptr %14, align 4
  %102 = load ptr, ptr %9, align 8
  %103 = load i32, ptr @hf_reload_storereq, align 4
  %104 = load ptr, ptr %7, align 8
  %105 = load i16, ptr %10, align 2
  %106 = zext i16 %105 to i32
  %107 = load i32, ptr %14, align 4
  %108 = call ptr @proto_tree_add_item(ptr noundef %102, i32 noundef %103, ptr noundef %104, i32 noundef %106, i32 noundef %107, i32 noundef 0)
  store ptr %108, ptr %12, align 8
  %109 = load ptr, ptr %12, align 8
  %110 = load i32, ptr @ett_reload_storereq, align 4
  %111 = call ptr @proto_item_add_subtree(ptr noundef %109, i32 noundef %110)
  store ptr %111, ptr %13, align 8
  store i32 0, ptr %14, align 4
  %112 = load i32, ptr @hf_reload_resource, align 4
  %113 = load ptr, ptr %7, align 8
  %114 = load ptr, ptr %8, align 8
  %115 = load ptr, ptr %13, align 8
  %116 = load i16, ptr %10, align 2
  %117 = zext i16 %116 to i32
  %118 = load i32, ptr %14, align 4
  %119 = add i32 %117, %118
  %120 = trunc i32 %119 to i16
  %121 = load i16, ptr %11, align 2
  %122 = call i32 @dissect_resourceid(i32 noundef %112, ptr noundef %113, ptr noundef %114, ptr noundef %115, i16 noundef zeroext %120, i16 noundef zeroext %121)
  %123 = load i32, ptr %14, align 4
  %124 = add i32 %123, %122
  store i32 %124, ptr %14, align 4
  %125 = load ptr, ptr %13, align 8
  %126 = load i32, ptr @hf_reload_store_replica_num, align 4
  %127 = load ptr, ptr %7, align 8
  %128 = load i16, ptr %10, align 2
  %129 = zext i16 %128 to i32
  %130 = load i32, ptr %14, align 4
  %131 = add i32 %129, %130
  %132 = call ptr @proto_tree_add_item(ptr noundef %125, i32 noundef %126, ptr noundef %127, i32 noundef %131, i32 noundef 1, i32 noundef 0)
  %133 = load i32, ptr %14, align 4
  %134 = add i32 %133, 1
  store i32 %134, ptr %14, align 4
  call void @llvm.lifetime.start.p0(i64 4, ptr %17) #8
  store i32 0, ptr %17, align 4
  call void @llvm.lifetime.start.p0(i64 4, ptr %18) #8
  call void @llvm.lifetime.start.p0(i64 8, ptr %19) #8
  call void @llvm.lifetime.start.p0(i64 8, ptr %20) #8
  call void @llvm.lifetime.start.p0(i64 4, ptr %21) #8
  store i32 0, ptr %21, align 4
  %135 = load ptr, ptr %13, align 8
  %136 = load i32, ptr @hf_reload_store_kind_data, align 4
  %137 = load ptr, ptr %7, align 8
  %138 = load i16, ptr %10, align 2
  %139 = zext i16 %138 to i32
  %140 = load i32, ptr %14, align 4
  %141 = add i32 %139, %140
  %142 = load i32, ptr %15, align 4
  %143 = add i32 4, %142
  %144 = call ptr @proto_tree_add_item(ptr noundef %135, i32 noundef %136, ptr noundef %137, i32 noundef %141, i32 noundef %143, i32 noundef 0)
  store ptr %144, ptr %19, align 8
  %145 = load ptr, ptr %19, align 8
  %146 = load i32, ptr %15, align 4
  call void (ptr, ptr, ...) @proto_item_append_text(ptr noundef %145, ptr noundef @.str.673, i32 noundef %146)
  %147 = load ptr, ptr %19, align 8
  %148 = load i32, ptr @ett_reload_store_kind_data, align 4
  %149 = call ptr @proto_item_add_subtree(ptr noundef %147, i32 noundef %148)
  store ptr %149, ptr %20, align 8
  %150 = load ptr, ptr %20, align 8
  %151 = load i32, ptr @hf_reload_length_uint32, align 4
  %152 = load ptr, ptr %7, align 8
  %153 = load i16, ptr %10, align 2
  %154 = zext i16 %153 to i32
  %155 = load i32, ptr %14, align 4
  %156 = add i32 %154, %155
  %157 = call ptr @proto_tree_add_item(ptr noundef %150, i32 noundef %151, ptr noundef %152, i32 noundef %156, i32 noundef 4, i32 noundef 0)
  %158 = load i32, ptr %14, align 4
  %159 = add i32 %158, 4
  store i32 %159, ptr %14, align 4
  br label %160

160:                                              ; preds = %188, %98
  %161 = load i32, ptr %17, align 4
  %162 = icmp sge i32 %161, 0
  br i1 %162, label %163, label %167

163:                                              ; preds = %160
  %164 = load i32, ptr %17, align 4
  %165 = load i32, ptr %15, align 4
  %166 = icmp ult i32 %164, %165
  br label %167

167:                                              ; preds = %163, %160
  %168 = phi i1 [ false, %160 ], [ %166, %163 ]
  br i1 %168, label %169, label %194

169:                                              ; preds = %167
  %170 = load ptr, ptr %7, align 8
  %171 = load ptr, ptr %8, align 8
  %172 = load ptr, ptr %20, align 8
  %173 = load i16, ptr %10, align 2
  %174 = zext i16 %173 to i32
  %175 = load i32, ptr %14, align 4
  %176 = add i32 %174, %175
  %177 = load i32, ptr %17, align 4
  %178 = add i32 %176, %177
  %179 = trunc i32 %178 to i16
  %180 = load i32, ptr %15, align 4
  %181 = load i32, ptr %17, align 4
  %182 = sub i32 %180, %181
  %183 = trunc i32 %182 to i16
  %184 = call i32 @dissect_kinddata(ptr noundef %170, ptr noundef %171, ptr noundef %172, i16 noundef zeroext %179, i16 noundef zeroext %183, i1 noundef zeroext false)
  store i32 %184, ptr %18, align 4
  %185 = load i32, ptr %18, align 4
  %186 = icmp eq i32 %185, 0
  br i1 %186, label %187, label %188

187:                                              ; preds = %169
  br label %194

188:                                              ; preds = %169
  %189 = load i32, ptr %21, align 4
  %190 = add i32 %189, 1
  store i32 %190, ptr %21, align 4
  %191 = load i32, ptr %18, align 4
  %192 = load i32, ptr %17, align 4
  %193 = add i32 %192, %191
  store i32 %193, ptr %17, align 4
  br label %160, !llvm.loop !13

194:                                              ; preds = %187, %167
  %195 = load ptr, ptr %19, align 8
  %196 = load i32, ptr %21, align 4
  call void (ptr, ptr, ...) @proto_item_append_text(ptr noundef %195, ptr noundef @.str.17, i32 noundef %196)
  call void @llvm.lifetime.end.p0(i64 4, ptr %21) #8
  call void @llvm.lifetime.end.p0(i64 8, ptr %20) #8
  call void @llvm.lifetime.end.p0(i64 8, ptr %19) #8
  call void @llvm.lifetime.end.p0(i64 4, ptr %18) #8
  call void @llvm.lifetime.end.p0(i64 4, ptr %17) #8
  %197 = load i32, ptr %15, align 4
  %198 = load i32, ptr %14, align 4
  %199 = add i32 %198, %197
  store i32 %199, ptr %14, align 4
  %200 = load i32, ptr %14, align 4
  store i32 %200, ptr %6, align 4
  store i32 1, ptr %16, align 4
  br label %201

201:                                              ; preds = %194, %84, %55, %34
  call void @llvm.lifetime.end.p0(i64 4, ptr %15) #8
  call void @llvm.lifetime.end.p0(i64 4, ptr %14) #8
  call void @llvm.lifetime.end.p0(i64 8, ptr %13) #8
  call void @llvm.lifetime.end.p0(i64 8, ptr %12) #8
  %202 = load i32, ptr %6, align 4
  ret i32 %202
}