; Function Attrs: null_pointer_is_valid sspstrong uwtable
define internal fastcc void @dissect_storereq(ptr noundef %0, ptr noundef %1, ptr noundef %2, i16 noundef zeroext %3, i16 noundef zeroext %4) unnamed_addr #0 {
  %6 = zext i16 %3 to i32
  %7 = tail call zeroext i8 @tvb_get_uint8(ptr noundef %0, i32 noundef %6)
  %8 = zext i8 %7 to i32
  %9 = zext i16 %4 to i32
  %.not = icmp samesign ult i32 %8, %9
  br i1 %.not, label %14, label %10

10:                                               ; preds = %5
  %11 = load i32, ptr @hf_reload_storereq, align 4
  %12 = tail call ptr @proto_tree_add_item(ptr noundef %2, i32 noundef %11, ptr noundef %0, i32 noundef %6, i32 noundef %9, i32 noundef 0)
  %13 = tail call ptr (ptr, ptr, ptr, ptr, ...) @expert_add_info_format(ptr noundef %1, ptr noundef %12, ptr noundef nonnull @ei_reload_truncated_field, ptr noundef nonnull @.str.670)
  br label %63

14:                                               ; preds = %5
  %15 = add nuw nsw i32 %8, 2
  %16 = icmp samesign ugt i32 %15, %9
  br i1 %16, label %17, label %21

17:                                               ; preds = %14
  %18 = load i32, ptr @hf_reload_storereq, align 4
  %19 = tail call ptr @proto_tree_add_item(ptr noundef %2, i32 noundef %18, ptr noundef %0, i32 noundef %6, i32 noundef %9, i32 noundef 0)
  %20 = tail call ptr (ptr, ptr, ptr, ptr, ...) @expert_add_info_format(ptr noundef %1, ptr noundef %19, ptr noundef nonnull @ei_reload_truncated_field, ptr noundef nonnull @.str.671)
  br label %63

21:                                               ; preds = %14
  %22 = add nuw nsw i32 %15, %6
  %23 = tail call i32 @tvb_get_ntohl(ptr noundef %0, i32 noundef %22)
  %24 = add nuw nsw i32 %8, 6
  %25 = add i32 %24, %23
  %26 = icmp ugt i32 %25, %9
  %27 = load i32, ptr @hf_reload_storereq, align 4
  br i1 %26, label %28, label %31

28:                                               ; preds = %21
  %29 = tail call ptr @proto_tree_add_item(ptr noundef %2, i32 noundef %27, ptr noundef %0, i32 noundef %6, i32 noundef %9, i32 noundef 0)
  %30 = tail call ptr (ptr, ptr, ptr, ptr, ...) @expert_add_info_format(ptr noundef %1, ptr noundef %29, ptr noundef nonnull @ei_reload_truncated_field, ptr noundef nonnull @.str.672)
  br label %63

31:                                               ; preds = %21
  %32 = tail call ptr @proto_tree_add_item(ptr noundef %2, i32 noundef %27, ptr noundef %0, i32 noundef %6, i32 noundef %25, i32 noundef 0)
  %33 = load i32, ptr @ett_reload_storereq, align 4
  %34 = tail call ptr @proto_item_add_subtree(ptr noundef %32, i32 noundef %33)
  %35 = load i32, ptr @hf_reload_resource, align 4
  %36 = tail call fastcc i32 @dissect_resourceid(i32 noundef %35, ptr noundef %0, ptr noundef %1, ptr noundef %34, i16 noundef zeroext %3, i16 noundef zeroext %4)
  %37 = load i32, ptr @hf_reload_store_replica_num, align 4
  %38 = add nuw nsw i32 %36, %6
  %39 = tail call ptr @proto_tree_add_item(ptr noundef %34, i32 noundef %37, ptr noundef %0, i32 noundef %38, i32 noundef 1, i32 noundef 0)
  %40 = load i32, ptr @hf_reload_store_kind_data, align 4
  %41 = add nuw nsw i32 %6, 1
  %42 = add nuw nsw i32 %41, %36
  %43 = add i32 %23, 4
  %44 = tail call ptr @proto_tree_add_item(ptr noundef %34, i32 noundef %40, ptr noundef %0, i32 noundef %42, i32 noundef %43, i32 noundef 0)
  tail call void (ptr, ptr, ...) @proto_item_append_text(ptr noundef %44, ptr noundef nonnull @.str.673, i32 noundef %23)
  %45 = load i32, ptr @ett_reload_store_kind_data, align 4
  %46 = tail call ptr @proto_item_add_subtree(ptr noundef %44, i32 noundef %45)
  %47 = load i32, ptr @hf_reload_length_uint32, align 4
  %48 = tail call ptr @proto_tree_add_item(ptr noundef %46, i32 noundef %47, ptr noundef %0, i32 noundef %42, i32 noundef 4, i32 noundef 0)
  %49 = add nuw nsw i32 %36, 5
  %50 = add nuw nsw i32 %49, %6
  %.not100 = icmp eq i32 %23, 0
  br i1 %.not100, label %._crit_edge, label %.lr.ph

.lr.ph:                                           ; preds = %31, %57
  %.097 = phi i32 [ %58, %57 ], [ 0, %31 ]
  %.08996 = phi i32 [ %59, %57 ], [ 0, %31 ]
  %51 = add nuw i32 %50, %.08996
  %52 = trunc i32 %51 to i16
  %53 = sub nuw i32 %23, %.08996
  %54 = trunc i32 %53 to i16
  %55 = tail call fastcc i32 @dissect_kinddata(ptr noundef %0, ptr noundef %1, ptr noundef %46, i16 noundef zeroext %52, i16 noundef zeroext %54, i1 noundef zeroext false)
  %56 = icmp eq i32 %55, 0
  br i1 %56, label %._crit_edge, label %57

57:                                               ; preds = %.lr.ph
  %58 = add i32 %.097, 1
  %59 = add i32 %55, %.08996
  %60 = icmp sgt i32 %59, -1
  %61 = icmp ult i32 %59, %23
  %62 = and i1 %60, %61
  br i1 %62, label %.lr.ph, label %._crit_edge, !llvm.loop !9

._crit_edge:                                      ; preds = %57, %.lr.ph, %31
  %.0.lcssa = phi i32 [ 0, %31 ], [ %.097, %.lr.ph ], [ %58, %57 ]
  tail call void (ptr, ptr, ...) @proto_item_append_text(ptr noundef %44, ptr noundef nonnull @.str.17, i32 noundef %.0.lcssa)
  br label %63

63:                                               ; preds = %._crit_edge, %28, %17, %10
  ret void
}